; Function Attrs: mustprogress uwtable
define dso_local void @_ZNK30cmInstallCxxModuleBmiGenerator17GetScriptLocationERKNSt7__cxx1112basic_stringIcSt11char_traitsIcESaIcEEE(ptr dead_on_unwind noalias writable sret(%"class.std::__cxx11::basic_string") align 8 %0, ptr nocapture noundef nonnull readonly align 8 dereferenceable(281) %1, ptr noundef nonnull align 8 dereferenceable(32) %2) local_unnamed_addr #3 align 2 personality ptr @__gxx_personality_v0 {
  %4 = alloca [4 x %"struct.std::pair"], align 8
  %5 = alloca %"class.std::__cxx11::basic_string", align 8
  %6 = tail call noundef ptr @_ZNKSt7__cxx1112basic_stringIcSt11char_traitsIcESaIcEE5c_strEv(ptr noundef nonnull align 8 dereferenceable(32) %2) #11
  %7 = tail call noundef zeroext i1 @_ZNKSt7__cxx1112basic_stringIcSt11char_traitsIcESaIcEE5emptyEv(ptr noundef nonnull align 8 dereferenceable(32) %2) #11
  %spec.select = select i1 %7, ptr @.str, ptr %6
  %8 = getelementptr inbounds i8, ptr %1, i64 232
  %9 = load ptr, ptr %8, align 8
  call void @_ZNK17cmGeneratorTarget19GetSupportDirectoryB5cxx11Ev(ptr dead_on_unwind nonnull writable sret(%"class.std::__cxx11::basic_string") align 8 %5, ptr noundef nonnull align 8 dereferenceable(2728) %9)
  call void @llvm.lifetime.start.p0(i64 96, ptr nonnull %4)
  call void @llvm.experimental.noalias.scope.decl(metadata !5)
  %10 = call { i64, ptr } @_ZNKSt7__cxx1112basic_stringIcSt11char_traitsIcESaIcEEcvSt17basic_string_viewIcS2_EEv(ptr noundef nonnull align 8 dereferenceable(32) %5) #11, !noalias !8
  %11 = extractvalue { i64, ptr } %10, 0
  %12 = extractvalue { i64, ptr } %10, 1
  store i64 %11, ptr %4, align 8, !alias.scope !5, !noalias !11
  %.sroa.2.0..sroa_idx.i.i = getelementptr inbounds i8, ptr %4, i64 8
  store ptr %12, ptr %.sroa.2.0..sroa_idx.i.i, align 8, !alias.scope !5, !noalias !11
  %13 = getelementptr inbounds i8, ptr %4, i64 16
  store ptr %5, ptr %13, align 8, !alias.scope !5, !noalias !11
  %14 = getelementptr inbounds i8, ptr %4, i64 24
  store i64 24, ptr %14, align 8, !alias.scope !12, !noalias !11
  %.sroa.2.0..sroa_idx.i8.i = getelementptr inbounds i8, ptr %4, i64 32
  store ptr @.str.1, ptr %.sroa.2.0..sroa_idx.i8.i, align 8, !alias.scope !12, !noalias !11
  %15 = getelementptr inbounds i8, ptr %4, i64 40
  store ptr null, ptr %15, align 8, !alias.scope !12, !noalias !11
  %16 = getelementptr inbounds i8, ptr %4, i64 48
  %17 = call noundef i64 @strlen(ptr noundef nonnull dereferenceable(1) %spec.select) #11, !noalias !11
  store i64 %17, ptr %16, align 8, !alias.scope !15, !noalias !11
  %.sroa.2.0..sroa_idx.i17.i = getelementptr inbounds i8, ptr %4, i64 56
  store ptr %spec.select, ptr %.sroa.2.0..sroa_idx.i17.i, align 8, !alias.scope !15, !noalias !11
  %18 = getelementptr inbounds i8, ptr %4, i64 64
  store ptr null, ptr %18, align 8, !alias.scope !15, !noalias !11
  %19 = getelementptr inbounds i8, ptr %4, i64 72
  store i64 6, ptr %19, align 8, !alias.scope !18, !noalias !11
  %.sroa.2.0..sroa_idx.i26.i = getelementptr inbounds i8, ptr %4, i64 80
  store ptr @.str.2, ptr %.sroa.2.0..sroa_idx.i26.i, align 8, !alias.scope !18, !noalias !11
  %20 = getelementptr inbounds i8, ptr %4, i64 88
  store ptr null, ptr %20, align 8, !alias.scope !18, !noalias !11
  invoke void @_Z10cmCatViewsSt16initializer_listISt4pairISt17basic_string_viewIcSt11char_traitsIcEEPNSt7__cxx1112basic_stringIcS3_SaIcEEEEE(ptr dead_on_unwind writable sret(%"class.std::__cxx11::basic_string") align 8 %0, ptr nonnull %4, i64 4)
          to label %21 unwind label %22

21:                                               ; preds = %3
  call void @llvm.lifetime.end.p0(i64 96, ptr nonnull %4)
  call void @_ZNSt7__cxx1112basic_stringIcSt11char_traitsIcESaIcEED1Ev(ptr noundef nonnull align 8 dereferenceable(32) %5) #11
  ret void

22:                                               ; preds = %3
  %23 = landingpad { ptr, i32 }
          cleanup
  call void @_ZNSt7__cxx1112basic_stringIcSt11char_traitsIcESaIcEED1Ev(ptr noundef nonnull align 8 dereferenceable(32) %5) #11
  resume { ptr, i32 } %23
}